target datalayout = "e-m:e-p270:32:32-p271:32:32-p272:64:64-i64:64-i128:128-f80:128-n8:16:32:64-S128"
target triple = "x86_64-pc-linux-gnu"

%struct.H5T_t = type { %struct.H5O_shared_t, ptr, %struct.H5O_loc_t, %struct.H5G_name_t, ptr }
%struct.H5O_shared_t = type { i32, ptr, i32, %union.anon }
%union.anon = type { %struct.H5O_mesg_loc_t }
%struct.H5O_mesg_loc_t = type { i32, i64 }
%struct.H5O_loc_t = type { ptr, i64, i8 }
%struct.H5G_name_t = type { ptr, ptr, i32 }

@H5_libterm_g = external global i8, align 1
@H5T_init_g = external global i8, align 1

; Function Attrs: nounwind uwtable
define i32 @H5T_update_shared(ptr noundef %0) #0 {
  %2 = alloca ptr, align 8
  store ptr %0, ptr %2, align 8, !tbaa !21
  %3 = load i8, ptr @H5T_init_g, align 1, !tbaa !12, !range !14, !noundef !15
  %4 = trunc i8 %3 to i1
  br i1 %4, label %9, label %5

5:                                                ; preds = %1
  %6 = load i8, ptr @H5_libterm_g, align 1, !tbaa !12, !range !14, !noundef !15
  %7 = trunc i8 %6 to i1
  %8 = xor i1 %7, true
  br label %9

9:                                                ; preds = %5, %1
  %10 = phi i1 [ true, %1 ], [ %8, %5 ]
  %11 = xor i1 %10, true
  %12 = xor i1 %11, true
  %13 = zext i1 %12 to i32
  %14 = sext i32 %13 to i64
  %15 = call i64 @llvm.expect.i64(i64 %14, i64 1)
  %16 = icmp ne i64 %15, 0
  br i1 %16, label %17, label %43

17:                                               ; preds = %9
  %18 = load ptr, ptr %2, align 8, !tbaa !21
  %19 = getelementptr inbounds nuw %struct.H5T_t, ptr %18, i32 0, i32 0
  %20 = getelementptr inbounds nuw %struct.H5O_shared_t, ptr %19, i32 0, i32 0
  store i32 2, ptr %20, align 8, !tbaa !44
  %21 = load ptr, ptr %2, align 8, !tbaa !21
  %22 = getelementptr inbounds nuw %struct.H5T_t, ptr %21, i32 0, i32 2
  %23 = getelementptr inbounds nuw %struct.H5O_loc_t, ptr %22, i32 0, i32 0
  %24 = load ptr, ptr %23, align 8, !tbaa !56
  %25 = load ptr, ptr %2, align 8, !tbaa !21
  %26 = getelementptr inbounds nuw %struct.H5T_t, ptr %25, i32 0, i32 0
  %27 = getelementptr inbounds nuw %struct.H5O_shared_t, ptr %26, i32 0, i32 1
  store ptr %24, ptr %27, align 8, !tbaa !45
  %28 = load ptr, ptr %2, align 8, !tbaa !21
  %29 = getelementptr inbounds nuw %struct.H5T_t, ptr %28, i32 0, i32 0
  %30 = getelementptr inbounds nuw %struct.H5O_shared_t, ptr %29, i32 0, i32 2
  store i32 3, ptr %30, align 8, !tbaa !57
  %31 = load ptr, ptr %2, align 8, !tbaa !21
  %32 = getelementptr inbounds nuw %struct.H5T_t, ptr %31, i32 0, i32 0
  %33 = getelementptr inbounds nuw %struct.H5O_shared_t, ptr %32, i32 0, i32 3
  %34 = getelementptr inbounds nuw %struct.H5O_mesg_loc_t, ptr %33, i32 0, i32 0
  store i32 0, ptr %34, align 8, !tbaa !23
  %35 = load ptr, ptr %2, align 8, !tbaa !21
  %36 = getelementptr inbounds nuw %struct.H5T_t, ptr %35, i32 0, i32 2
  %37 = getelementptr inbounds nuw %struct.H5O_loc_t, ptr %36, i32 0, i32 1
  %38 = load i64, ptr %37, align 8, !tbaa !58
  %39 = load ptr, ptr %2, align 8, !tbaa !21
  %40 = getelementptr inbounds nuw %struct.H5T_t, ptr %39, i32 0, i32 0
  %41 = getelementptr inbounds nuw %struct.H5O_shared_t, ptr %40, i32 0, i32 3
  %42 = getelementptr inbounds nuw %struct.H5O_mesg_loc_t, ptr %41, i32 0, i32 1
  store i64 %38, ptr %42, align 8, !tbaa !23
  br label %43

43:                                               ; preds = %17, %9
  ret i32 0
}