; Function Attrs: mustprogress nofree norecurse nosync nounwind willreturn memory(read, argmem: readwrite, inaccessiblemem: none) uwtable
define noundef i32 @H5T_update_shared(ptr noundef captures(none) %0) local_unnamed_addr #4 {
  %2 = load i8, ptr @H5T_init_g, align 1, !tbaa !3, !range !7, !noundef !8
  %3 = trunc nuw i8 %2 to i1
  %4 = load i8, ptr @H5_libterm_g, align 1, !range !7
  %5 = trunc nuw i8 %4 to i1
  %6 = xor i1 %5, true
  %7 = select i1 %3, i1 true, i1 %6
  br i1 %7, label %8, label %17, !prof !9

8:                                                ; preds = %1
  store i32 2, ptr %0, align 8, !tbaa !40
  %9 = getelementptr inbounds nuw i8, ptr %0, i64 48
  %10 = load ptr, ptr %9, align 8, !tbaa !46
  %11 = getelementptr inbounds nuw i8, ptr %0, i64 8
  store ptr %10, ptr %11, align 8, !tbaa !41
  %12 = getelementptr inbounds nuw i8, ptr %0, i64 16
  store i32 3, ptr %12, align 8, !tbaa !47
  %13 = getelementptr inbounds nuw i8, ptr %0, i64 24
  store i32 0, ptr %13, align 8, !tbaa !18
  %14 = getelementptr inbounds nuw i8, ptr %0, i64 56
  %15 = load i64, ptr %14, align 8, !tbaa !48
  %16 = getelementptr inbounds nuw i8, ptr %0, i64 32
  store i64 %15, ptr %16, align 8, !tbaa !18
  br label %17

17:                                               ; preds = %8, %1
  ret i32 0
}